target datalayout = "e-m:e-p270:32:32-p271:32:32-p272:64:64-i64:64-i128:128-f80:128-n8:16:32:64-S128"
target triple = "x86_64-unknown-linux-gnu"

%"class.icu_75::UObject" = type { ptr }
%"class.icu_75::CollationBuilder" = type { %"class.icu_75::CollationRuleParser::Sink", ptr, ptr, ptr, ptr, ptr, %"class.icu_75::CollationRootElements", i32, ptr, i8, i8, [6 x i8], %"class.icu_75::UnicodeSet", ptr, [31 x i64], i32, %"class.icu_75::UVector32", %"class.icu_75::UVector64" }
%"class.icu_75::CollationRuleParser::Sink" = type { %"class.icu_75::UObject" }
%"class.icu_75::CollationRootElements" = type <{ ptr, i32, [4 x i8] }>
%"class.icu_75::UnicodeSet" = type <{ %"class.icu_75::UnicodeFilter", ptr, i32, i32, i8, [7 x i8], ptr, ptr, i32, [4 x i8], ptr, i32, [4 x i8], ptr, ptr, [25 x i32], [4 x i8] }>
%"class.icu_75::UnicodeFilter" = type { %"class.icu_75::UnicodeFunctor", %"class.icu_75::UnicodeMatcher" }
%"class.icu_75::UnicodeFunctor" = type { %"class.icu_75::UObject" }
%"class.icu_75::UnicodeMatcher" = type { ptr }
%"class.icu_75::UVector32" = type { %"class.icu_75::UObject", i32, i32, i32, ptr }
%"class.icu_75::UVector64" = type { %"class.icu_75::UObject", i32, i32, i32, ptr }

; Function Attrs: mustprogress nounwind uwtable
define linkonce_odr noundef i32 @_ZN6icu_7516CollationBuilder16weight16FromNodeEl(i64 noundef %node) #3 comdat align 2 {
entry:
  %node.addr = alloca i64, align 8
  store i64 %node, ptr %node.addr, align 8
  %0 = load i64, ptr %node.addr, align 8
  %shr = ashr i64 %0, 48
  %conv = trunc i64 %shr to i32
  %and = and i32 %conv, 65535
  ret i32 %and
}

; Function Attrs: mustprogress nounwind uwtable
define linkonce_odr noundef signext i8 @_ZN6icu_7516CollationBuilder14isTailoredNodeEl(i64 noundef %node) #3 comdat align 2 {
entry:
  %node.addr = alloca i64, align 8
  store i64 %node, ptr %node.addr, align 8
  %0 = load i64, ptr %node.addr, align 8
  %and = and i64 %0, 8
  %cmp = icmp ne i64 %and, 0
  %conv = zext i1 %cmp to i8
  ret i8 %conv
}

; Function Attrs: mustprogress nounwind uwtable
define linkonce_odr noundef i32 @_ZN6icu_7516CollationBuilder17nextIndexFromNodeEl(i64 noundef %node) #3 comdat align 2 {
entry:
  %node.addr = alloca i64, align 8
  store i64 %node, ptr %node.addr, align 8
  %0 = load i64, ptr %node.addr, align 8
  %conv = trunc i64 %0 to i32
  %shr = ashr i32 %conv, 8
  %and = and i32 %shr, 1048575
  ret i32 %and
}

; Function Attrs: mustprogress nounwind uwtable
define linkonce_odr noundef signext i8 @_ZN6icu_7516CollationBuilder14nodeHasBefore3El(i64 noundef %node) #3 comdat align 2 {
entry:
  %node.addr = alloca i64, align 8
  store i64 %node, ptr %node.addr, align 8
  %0 = load i64, ptr %node.addr, align 8
  %and = and i64 %0, 32
  %cmp = icmp ne i64 %and, 0
  %conv = zext i1 %cmp to i8
  ret i8 %conv
}

; Function Attrs: mustprogress nounwind uwtable
define linkonce_odr noundef signext i8 @_ZN6icu_7516CollationBuilder14nodeHasBefore2El(i64 noundef %node) #3 comdat align 2 {
entry:
  %node.addr = alloca i64, align 8
  store i64 %node, ptr %node.addr, align 8
  %0 = load i64, ptr %node.addr, align 8
  %and = and i64 %0, 64
  %cmp = icmp ne i64 %and, 0
  %conv = zext i1 %cmp to i8
  ret i8 %conv
}

; Function Attrs: mustprogress nounwind uwtable
define linkonce_odr noundef i32 @_ZN6icu_7516CollationBuilder16strengthFromNodeEl(i64 noundef %node) #3 comdat align 2 {
entry:
  %node.addr = alloca i64, align 8
  store i64 %node, ptr %node.addr, align 8
  %0 = load i64, ptr %node.addr, align 8
  %conv = trunc i64 %0 to i32
  %and = and i32 %conv, 3
  ret i32 %and
}

; Function Attrs: mustprogress nounwind uwtable
define linkonce_odr noundef i64 @_ZNK6icu_759UVector6410elementAtiEi(ptr noundef nonnull align 8 dereferenceable(32) %this, i32 noundef %index) #3 comdat align 2 {
entry:
  %this.addr = alloca ptr, align 8
  %index.addr = alloca i32, align 4
  store ptr %this, ptr %this.addr, align 8
  store i32 %index, ptr %index.addr, align 4
  %this1 = load ptr, ptr %this.addr, align 8
  %0 = load i32, ptr %index.addr, align 4
  %cmp = icmp sle i32 0, %0
  br i1 %cmp, label %land.lhs.true, label %cond.false

land.lhs.true:                                    ; preds = %entry
  %1 = load i32, ptr %index.addr, align 4
  %count = getelementptr inbounds %"class.icu_75::UVector64", ptr %this1, i32 0, i32 1
  %2 = load i32, ptr %count, align 8
  %cmp2 = icmp slt i32 %1, %2
  br i1 %cmp2, label %cond.true, label %cond.false

cond.true:                                        ; preds = %land.lhs.true
  %elements = getelementptr inbounds %"class.icu_75::UVector64", ptr %this1, i32 0, i32 4
  %3 = load ptr, ptr %elements, align 8
  %4 = load i32, ptr %index.addr, align 4
  %idxprom = sext i32 %4 to i64
  %arrayidx = getelementptr inbounds i64, ptr %3, i64 %idxprom
  %5 = load i64, ptr %arrayidx, align 8
  br label %cond.end

cond.false:                                       ; preds = %land.lhs.true, %entry
  br label %cond.end

cond.end:                                         ; preds = %cond.false, %cond.true
  %cond = phi i64 [ %5, %cond.true ], [ 0, %cond.false ]
  ret i64 %cond
}

; Function Attrs: mustprogress uwtable
define noundef i32 @_ZNK6icu_7516CollationBuilder14findCommonNodeEii(ptr noundef nonnull align 8 dereferenceable(616) %this, i32 noundef %index, i32 noundef %strength) #0 align 2 {
entry:
  %retval = alloca i32, align 4
  %this.addr = alloca ptr, align 8
  %index.addr = alloca i32, align 4
  %strength.addr = alloca i32, align 4
  %node = alloca i64, align 8
  store ptr %this, ptr %this.addr, align 8
  store i32 %index, ptr %index.addr, align 4
  store i32 %strength, ptr %strength.addr, align 4
  %this1 = load ptr, ptr %this.addr, align 8
  %nodes = getelementptr inbounds %"class.icu_75::CollationBuilder", ptr %this1, i32 0, i32 17
  %0 = load i32, ptr %index.addr, align 4
  %call = call noundef i64 @_ZNK6icu_759UVector6410elementAtiEi(ptr noundef nonnull align 8 dereferenceable(32) %nodes, i32 noundef %0)
  store i64 %call, ptr %node, align 8
  %1 = load i64, ptr %node, align 8
  %call2 = call noundef i32 @_ZN6icu_7516CollationBuilder16strengthFromNodeEl(i64 noundef %1)
  %2 = load i32, ptr %strength.addr, align 4
  %cmp = icmp sge i32 %call2, %2
  br i1 %cmp, label %if.then, label %if.end

if.then:                                          ; preds = %entry
  %3 = load i32, ptr %index.addr, align 4
  store i32 %3, ptr %retval, align 4
  br label %return

if.end:                                           ; preds = %entry
  %4 = load i32, ptr %strength.addr, align 4
  %cmp3 = icmp eq i32 %4, 1
  br i1 %cmp3, label %cond.true, label %cond.false

cond.true:                                        ; preds = %if.end
  %5 = load i64, ptr %node, align 8
  %call4 = call noundef signext i8 @_ZN6icu_7516CollationBuilder14nodeHasBefore2El(i64 noundef %5)
  %tobool = icmp ne i8 %call4, 0
  br i1 %tobool, label %if.end8, label %if.then7

cond.false:                                       ; preds = %if.end
  %6 = load i64, ptr %node, align 8
  %call5 = call noundef signext i8 @_ZN6icu_7516CollationBuilder14nodeHasBefore3El(i64 noundef %6)
  %tobool6 = icmp ne i8 %call5, 0
  br i1 %tobool6, label %if.end8, label %if.then7

if.then7:                                         ; preds = %cond.false, %cond.true
  %7 = load i32, ptr %index.addr, align 4
  store i32 %7, ptr %retval, align 4
  br label %return

if.end8:                                          ; preds = %cond.false, %cond.true
  %8 = load i64, ptr %node, align 8
  %call9 = call noundef i32 @_ZN6icu_7516CollationBuilder17nextIndexFromNodeEl(i64 noundef %8)
  store i32 %call9, ptr %index.addr, align 4
  %nodes10 = getelementptr inbounds %"class.icu_75::CollationBuilder", ptr %this1, i32 0, i32 17
  %9 = load i32, ptr %index.addr, align 4
  %call11 = call noundef i64 @_ZNK6icu_759UVector6410elementAtiEi(ptr noundef nonnull align 8 dereferenceable(32) %nodes10, i32 noundef %9)
  store i64 %call11, ptr %node, align 8
  br label %do.body

do.body:                                          ; preds = %lor.end, %if.end8
  %10 = load i64, ptr %node, align 8
  %call12 = call noundef i32 @_ZN6icu_7516CollationBuilder17nextIndexFromNodeEl(i64 noundef %10)
  store i32 %call12, ptr %index.addr, align 4
  %nodes13 = getelementptr inbounds %"class.icu_75::CollationBuilder", ptr %this1, i32 0, i32 17
  %11 = load i32, ptr %index.addr, align 4
  %call14 = call noundef i64 @_ZNK6icu_759UVector6410elementAtiEi(ptr noundef nonnull align 8 dereferenceable(32) %nodes13, i32 noundef %11)
  store i64 %call14, ptr %node, align 8
  br label %do.cond

do.cond:                                          ; preds = %do.body
  %12 = load i64, ptr %node, align 8
  %call15 = call noundef signext i8 @_ZN6icu_7516CollationBuilder14isTailoredNodeEl(i64 noundef %12)
  %tobool16 = icmp ne i8 %call15, 0
  br i1 %tobool16, label %lor.end, label %lor.lhs.false

lor.lhs.false:                                    ; preds = %do.cond
  %13 = load i64, ptr %node, align 8
  %call17 = call noundef i32 @_ZN6icu_7516CollationBuilder16strengthFromNodeEl(i64 noundef %13)
  %14 = load i32, ptr %strength.addr, align 4
  %cmp18 = icmp sgt i32 %call17, %14
  br i1 %cmp18, label %lor.end, label %lor.rhs

lor.rhs:                                          ; preds = %lor.lhs.false
  %15 = load i64, ptr %node, align 8
  %call19 = call noundef i32 @_ZN6icu_7516CollationBuilder16weight16FromNodeEl(i64 noundef %15)
  %cmp20 = icmp ult i32 %call19, 1280
  br label %lor.end

lor.end:                                          ; preds = %lor.rhs, %lor.lhs.false, %do.cond
  %16 = phi i1 [ true, %lor.lhs.false ], [ true, %do.cond ], [ %cmp20, %lor.rhs ]
  br i1 %16, label %do.body, label %do.end, !llvm.loop !14

do.end:                                           ; preds = %lor.end
  %17 = load i32, ptr %index.addr, align 4
  store i32 %17, ptr %retval, align 4
  br label %return

return:                                           ; preds = %do.end, %if.then7, %if.then
  %18 = load i32, ptr %retval, align 4
  ret i32 %18
}