; Function Attrs: mustprogress nofree norecurse nosync nounwind willreturn memory(read, inaccessiblemem: none) uwtable
define noundef i32 @_ZNK6icu_7516CollationBuilder14findCommonNodeEii(ptr nocapture noundef nonnull readonly align 8 dereferenceable(616) %this, i32 noundef %index, i32 noundef %strength) local_unnamed_addr #5 align 2 {
entry:
  %cmp.i = icmp sgt i32 %index, -1
  %count.i = getelementptr inbounds i8, ptr %this, i64 592
  %0 = load i32, ptr %count.i, align 8
  %cmp2.i = icmp sgt i32 %0, %index
  %or.cond.i = select i1 %cmp.i, i1 %cmp2.i, i1 false
  br i1 %or.cond.i, label %cond.true.i, label %_ZNK6icu_759UVector6410elementAtiEi.exit

cond.true.i:                                      ; preds = %entry
  %elements.i = getelementptr inbounds i8, ptr %this, i64 608
  %1 = load ptr, ptr %elements.i, align 8
  %idxprom.i = zext nneg i32 %index to i64
  %arrayidx.i = getelementptr inbounds i64, ptr %1, i64 %idxprom.i
  %2 = load i64, ptr %arrayidx.i, align 8
  br label %_ZNK6icu_759UVector6410elementAtiEi.exit

_ZNK6icu_759UVector6410elementAtiEi.exit:         ; preds = %entry, %cond.true.i
  %cond.i = phi i64 [ %2, %cond.true.i ], [ 0, %entry ]
  %conv.i = trunc i64 %cond.i to i32
  %and.i = and i32 %conv.i, 3
  %cmp.not = icmp slt i32 %and.i, %strength
  br i1 %cmp.not, label %if.end, label %return

if.end:                                           ; preds = %_ZNK6icu_759UVector6410elementAtiEi.exit
  %cmp3 = icmp eq i32 %strength, 1
  br i1 %cmp3, label %cond.true, label %cond.false

cond.true:                                        ; preds = %if.end
  %3 = and i64 %cond.i, 64
  %tobool.not = icmp eq i64 %3, 0
  br i1 %tobool.not, label %return, label %if.end8

cond.false:                                       ; preds = %if.end
  %4 = and i64 %cond.i, 32
  %tobool6.not = icmp eq i64 %4, 0
  br i1 %tobool6.not, label %return, label %if.end8

if.end8:                                          ; preds = %cond.false, %cond.true
  %shr.i = lshr i32 %conv.i, 8
  %and.i18 = and i32 %shr.i, 1048575
  %cmp2.i20 = icmp sgt i32 %0, %and.i18
  %elements.i23 = getelementptr inbounds i8, ptr %this, i64 608
  %5 = load ptr, ptr %elements.i23, align 8
  br i1 %cmp2.i20, label %cond.true.i22, label %do.body.preheader

cond.true.i22:                                    ; preds = %if.end8
  %idxprom.i24 = zext nneg i32 %and.i18 to i64
  %arrayidx.i25 = getelementptr inbounds i64, ptr %5, i64 %idxprom.i24
  %6 = load i64, ptr %arrayidx.i25, align 8
  br label %do.body.preheader

do.body.preheader:                                ; preds = %if.end8, %cond.true.i22
  %node.0.ph = phi i64 [ 0, %if.end8 ], [ %6, %cond.true.i22 ]
  br label %do.body

do.body:                                          ; preds = %do.body.backedge, %do.body.preheader
  %node.0 = phi i64 [ %node.0.ph, %do.body.preheader ], [ %node.0.be, %do.body.backedge ]
  %conv.i27 = trunc i64 %node.0 to i32
  %shr.i28 = lshr i32 %conv.i27, 8
  %and.i29 = and i32 %shr.i28, 1048575
  %cmp2.i31 = icmp sgt i32 %0, %and.i29
  br i1 %cmp2.i31, label %_ZNK6icu_759UVector6410elementAtiEi.exit37, label %do.body.backedge

do.body.backedge:                                 ; preds = %do.body, %lor.lhs.false, %_ZNK6icu_759UVector6410elementAtiEi.exit37
  %node.0.be = phi i64 [ %7, %_ZNK6icu_759UVector6410elementAtiEi.exit37 ], [ %7, %lor.lhs.false ], [ 0, %do.body ]
  br label %do.body, !llvm.loop !16

_ZNK6icu_759UVector6410elementAtiEi.exit37:       ; preds = %do.body
  %idxprom.i35 = zext nneg i32 %and.i29 to i64
  %arrayidx.i36 = getelementptr inbounds i64, ptr %5, i64 %idxprom.i35
  %7 = load i64, ptr %arrayidx.i36, align 8
  %8 = and i64 %7, 8
  %tobool16.not = icmp eq i64 %8, 0
  br i1 %tobool16.not, label %lor.lhs.false, label %do.body.backedge

lor.lhs.false:                                    ; preds = %_ZNK6icu_759UVector6410elementAtiEi.exit37
  %conv.i39 = trunc i64 %7 to i32
  %and.i40 = and i32 %conv.i39, 3
  %cmp18 = icmp sgt i32 %and.i40, %strength
  %shr.i41 = lshr i64 %7, 48
  %conv.i42 = trunc i64 %shr.i41 to i32
  %cmp20 = icmp ult i32 %conv.i42, 1280
  %or.cond = or i1 %cmp18, %cmp20
  br i1 %or.cond, label %do.body.backedge, label %return

return:                                           ; preds = %lor.lhs.false, %cond.true, %cond.false, %_ZNK6icu_759UVector6410elementAtiEi.exit
  %retval.0 = phi i32 [ %index, %_ZNK6icu_759UVector6410elementAtiEi.exit ], [ %index, %cond.false ], [ %index, %cond.true ], [ %and.i29, %lor.lhs.false ]
  ret i32 %retval.0
}